; Function Attrs: nounwind uwtable
define ptr @l_Lake_instMonadDStoreStateRefT_x27DRBMapOfMonadLiftTSTOfMonadOfEqOfCmpWrt___rarg___lambda__4(ptr noundef %0, ptr noundef %1, ptr noundef %2, ptr noundef %3, ptr noundef %4) #0 {
  tail call void @lean_inc_heartbeat() #3
  %6 = tail call noalias ptr @mi_malloc_small(i64 noundef 48) #3
  %7 = icmp eq ptr %6, null
  br i1 %7, label %8, label %lean_alloc_closure.exit

8:                                                ; preds = %5
  tail call void @lean_internal_panic_out_of_memory() #4
  unreachable

lean_alloc_closure.exit:                          ; preds = %5
  %9 = getelementptr inbounds nuw i8, ptr %6, i64 4
  store i32 1, ptr %6, align 4, !tbaa !4
  store i32 -184549328, ptr %9, align 4
  %10 = getelementptr inbounds nuw i8, ptr %6, i64 8
  store ptr @l_Lake_instMonadDStoreStateRefT_x27DRBMapOfMonadLiftTSTOfMonadOfEqOfCmpWrt___rarg___lambda__3, ptr %10, align 8, !tbaa !9
  %11 = getelementptr inbounds nuw i8, ptr %6, i64 16
  store i16 4, ptr %11, align 8, !tbaa !12
  %12 = getelementptr inbounds nuw i8, ptr %6, i64 18
  store i16 3, ptr %12, align 2, !tbaa !12
  %13 = getelementptr inbounds nuw i8, ptr %6, i64 24
  store ptr %0, ptr %13, align 8, !tbaa !9
  %14 = getelementptr inbounds nuw i8, ptr %6, i64 32
  store ptr %2, ptr %14, align 8, !tbaa !9
  %15 = getelementptr inbounds nuw i8, ptr %6, i64 40
  store ptr %3, ptr %15, align 8, !tbaa !9
  tail call void @lean_inc_heartbeat() #3
  %16 = tail call noalias ptr @mi_malloc_small(i64 noundef 40) #3
  %17 = icmp eq ptr %16, null
  br i1 %17, label %18, label %lean_alloc_closure.exit13

18:                                               ; preds = %lean_alloc_closure.exit
  tail call void @lean_internal_panic_out_of_memory() #4
  unreachable

lean_alloc_closure.exit13:                        ; preds = %lean_alloc_closure.exit
  %19 = getelementptr inbounds nuw i8, ptr %16, i64 4
  store i32 1, ptr %16, align 4, !tbaa !4
  store i32 -184549336, ptr %19, align 4
  %20 = getelementptr inbounds nuw i8, ptr %16, i64 8
  store ptr @l_ST_Prim_Ref_modifyGetUnsafe___rarg___boxed, ptr %20, align 8, !tbaa !9
  %21 = getelementptr inbounds nuw i8, ptr %16, i64 16
  store i16 3, ptr %21, align 8, !tbaa !12
  %22 = getelementptr inbounds nuw i8, ptr %16, i64 18
  store i16 2, ptr %22, align 2, !tbaa !12
  %23 = getelementptr inbounds nuw i8, ptr %16, i64 24
  store ptr %4, ptr %23, align 8, !tbaa !9
  %24 = getelementptr inbounds nuw i8, ptr %16, i64 32
  store ptr %6, ptr %24, align 8, !tbaa !9
  %25 = tail call ptr @lean_apply_2(ptr noundef %1, ptr noundef nonnull inttoptr (i64 1 to ptr), ptr noundef nonnull %16) #3
  ret ptr %25
}